target datalayout = "e-m:e-p270:32:32-p271:32:32-p272:64:64-i64:64-i128:128-f80:128-n8:16:32:64-S128"
target triple = "x86_64-pc-linux-gnu"

%struct.pref_module = type { ptr, ptr, ptr, ptr, ptr, ptr, ptr, ptr, i32, i32, i8, i8, i32 }

@prefs_modules = internal global ptr null, align 8

; Function Attrs: null_pointer_is_valid sspstrong uwtable
define ptr @prefs_find_module(ptr noundef %0) #1 {
  %2 = alloca ptr, align 8
  store ptr %0, ptr %2, align 8
  %3 = load ptr, ptr @prefs_modules, align 8
  %4 = load ptr, ptr %2, align 8
  %5 = call ptr @wmem_tree_lookup_string(ptr noundef %3, ptr noundef %4, i32 noundef 1)
  ret ptr %5
}

; Function Attrs: null_pointer_is_valid sspstrong uwtable
define zeroext i1 @prefs_is_registered_protocol(ptr noundef %0) #1 {
  %2 = alloca ptr, align 8
  %3 = alloca ptr, align 8
  store ptr %0, ptr %2, align 8
  call void @llvm.lifetime.start.p0(i64 8, ptr %3) #17
  %4 = load ptr, ptr %2, align 8
  %5 = call ptr @prefs_find_module(ptr noundef %4)
  store ptr %5, ptr %3, align 8
  %6 = load ptr, ptr %3, align 8
  %7 = icmp ne ptr %6, null
  br i1 %7, label %8, label %14

8:                                                ; preds = %1
  %9 = load ptr, ptr %3, align 8
  %10 = getelementptr inbounds nuw %struct.pref_module, ptr %9, i32 0, i32 10
  %11 = load i8, ptr %10, align 8, !range !6, !noundef !7
  %12 = trunc i8 %11 to i1
  %13 = xor i1 %12, true
  br label %14

14:                                               ; preds = %8, %1
  %15 = phi i1 [ false, %1 ], [ %13, %8 ]
  call void @llvm.lifetime.end.p0(i64 8, ptr %3) #17
  ret i1 %15
}