; Function Attrs: null_pointer_is_valid sspstrong uwtable
define zeroext i1 @prefs_is_registered_protocol(ptr noundef %0) local_unnamed_addr #1 {
  %2 = load ptr, ptr @prefs_modules, align 8
  %3 = tail call ptr @wmem_tree_lookup_string(ptr noundef %2, ptr noundef %0, i32 noundef 1)
  %.not = icmp eq ptr %3, null
  br i1 %.not, label %9, label %4

4:                                                ; preds = %1
  %5 = getelementptr inbounds nuw i8, ptr %3, i64 72
  %6 = load i8, ptr %5, align 8, !range !6, !noundef !7
  %7 = trunc nuw i8 %6 to i1
  %8 = xor i1 %7, true
  br label %9

9:                                                ; preds = %4, %1
  %10 = phi i1 [ false, %1 ], [ %8, %4 ]
  ret i1 %10
}